; Function Attrs: nofree nounwind uwtable
define noalias noundef ptr @Sim_UtilCountOnesArray(ptr noundef readonly captures(none) %0, i32 noundef %1) local_unnamed_addr #0 {
  %3 = getelementptr i8, ptr %0, i64 4
  %.val10 = load i32, ptr %3, align 4, !tbaa !13
  %4 = tail call noalias dereferenceable_or_null(16) ptr @malloc(i64 noundef 16) #17
  %5 = add i32 %.val10, -1
  %or.cond.i.i = icmp ult i32 %5, 15
  %spec.store.select.i.i = select i1 %or.cond.i.i, i32 16, i32 %.val10
  %6 = getelementptr inbounds nuw i8, ptr %4, i64 4
  store i32 %spec.store.select.i.i, ptr %4, align 8, !tbaa !19
  %.not.i.i = icmp eq i32 %spec.store.select.i.i, 0
  br i1 %.not.i.i, label %Vec_IntAlloc.exit.thread.i, label %Vec_IntAlloc.exit.i

Vec_IntAlloc.exit.thread.i:                       ; preds = %2
  %7 = getelementptr inbounds nuw i8, ptr %4, i64 8
  store ptr null, ptr %7, align 8, !tbaa !20
  store i32 %.val10, ptr %6, align 4, !tbaa !16
  br label %Vec_IntStart.exit

Vec_IntAlloc.exit.i:                              ; preds = %2
  %8 = sext i32 %spec.store.select.i.i to i64
  %9 = shl nsw i64 %8, 2
  %10 = tail call noalias ptr @malloc(i64 noundef %9) #17
  %11 = getelementptr inbounds nuw i8, ptr %4, i64 8
  store ptr %10, ptr %11, align 8, !tbaa !20
  store i32 %.val10, ptr %6, align 4, !tbaa !16
  %.not.i = icmp eq ptr %10, null
  br i1 %.not.i, label %Vec_IntStart.exit, label %12

12:                                               ; preds = %Vec_IntAlloc.exit.i
  %13 = sext i32 %.val10 to i64
  %14 = shl nsw i64 %13, 2
  tail call void @llvm.memset.p0.i64(ptr nonnull align 4 %10, i8 0, i64 %14, i1 false)
  br label %Vec_IntStart.exit

Vec_IntStart.exit:                                ; preds = %Vec_IntAlloc.exit.thread.i, %Vec_IntAlloc.exit.i, %12
  %.val12 = phi ptr [ null, %Vec_IntAlloc.exit.thread.i ], [ null, %Vec_IntAlloc.exit.i ], [ %10, %12 ]
  %15 = icmp sgt i32 %.val10, 0
  br i1 %15, label %.lr.ph, label %.critedge

.lr.ph:                                           ; preds = %Vec_IntStart.exit
  %16 = getelementptr i8, ptr %0, i64 8
  %.val11 = load ptr, ptr %16, align 8, !tbaa !9
  %17 = icmp sgt i32 %1, 0
  %18 = shl i32 %1, 2
  %smax.i = tail call i32 @llvm.smax.i32(i32 %18, i32 1)
  %wide.trip.count.i = zext nneg i32 %smax.i to i64
  %19 = zext nneg i32 %.val10 to i64
  br i1 %17, label %.lr.ph.preheader.i.us, label %Sim_UtilCountOnes.exit

.lr.ph.preheader.i.us:                            ; preds = %.lr.ph, %Sim_UtilCountOnes.exit.loopexit.us
  %indvars.iv17 = phi i64 [ %indvars.iv.next18, %Sim_UtilCountOnes.exit.loopexit.us ], [ 0, %.lr.ph ]
  %20 = getelementptr inbounds nuw ptr, ptr %.val11, i64 %indvars.iv17
  %21 = load ptr, ptr %20, align 8, !tbaa !10
  br label %.lr.ph.i.us

.lr.ph.i.us:                                      ; preds = %.lr.ph.i.us, %.lr.ph.preheader.i.us
  %indvars.iv.i.us = phi i64 [ 0, %.lr.ph.preheader.i.us ], [ %indvars.iv.next.i.us, %.lr.ph.i.us ]
  %.089.i.us = phi i32 [ 0, %.lr.ph.preheader.i.us ], [ %27, %.lr.ph.i.us ]
  %22 = getelementptr inbounds nuw i8, ptr %21, i64 %indvars.iv.i.us
  %23 = load i8, ptr %22, align 1, !tbaa !77
  %24 = zext i8 %23 to i64
  %25 = getelementptr inbounds nuw [256 x i32], ptr @bit_count, i64 0, i64 %24
  %26 = load i32, ptr %25, align 4, !tbaa !14
  %27 = add nsw i32 %26, %.089.i.us
  %indvars.iv.next.i.us = add nuw nsw i64 %indvars.iv.i.us, 1
  %exitcond.not.i.us = icmp eq i64 %indvars.iv.next.i.us, %wide.trip.count.i
  br i1 %exitcond.not.i.us, label %Sim_UtilCountOnes.exit.loopexit.us, label %.lr.ph.i.us, !llvm.loop !78

Sim_UtilCountOnes.exit.loopexit.us:               ; preds = %.lr.ph.i.us
  %28 = getelementptr inbounds nuw i32, ptr %.val12, i64 %indvars.iv17
  store i32 %27, ptr %28, align 4, !tbaa !14
  %indvars.iv.next18 = add nuw nsw i64 %indvars.iv17, 1
  %29 = icmp samesign ult i64 %indvars.iv.next18, %19
  br i1 %29, label %.lr.ph.preheader.i.us, label %.critedge, !llvm.loop !79

Sim_UtilCountOnes.exit:                           ; preds = %.lr.ph, %Sim_UtilCountOnes.exit
  %indvars.iv = phi i64 [ %indvars.iv.next, %Sim_UtilCountOnes.exit ], [ 0, %.lr.ph ]
  %30 = getelementptr inbounds nuw i32, ptr %.val12, i64 %indvars.iv
  store i32 0, ptr %30, align 4, !tbaa !14
  %indvars.iv.next = add nuw nsw i64 %indvars.iv, 1
  %31 = icmp samesign ult i64 %indvars.iv.next, %19
  br i1 %31, label %Sim_UtilCountOnes.exit, label %.critedge, !llvm.loop !79

.critedge:                                        ; preds = %Sim_UtilCountOnes.exit, %Sim_UtilCountOnes.exit.loopexit.us, %Vec_IntStart.exit
  ret ptr %4
}